; Function Attrs: mustprogress uwtable
define void @_ZN5arrow3ipc14DictionaryMemo17AddDictionaryTypeElRKSt10shared_ptrINS_8DataTypeEE(ptr dead_on_unwind noalias writable sret(%"class.arrow::Status") align 8 %0, ptr noundef nonnull readonly align 8 captures(none) dereferenceable(8) %1, i64 noundef %2, ptr noundef nonnull align 8 dereferenceable(16) %3) local_unnamed_addr #1 align 2 {
  %5 = alloca i64, align 8
  store i64 %2, ptr %5, align 8, !tbaa !81
  %6 = load ptr, ptr %1, align 8, !tbaa !115
  %7 = getelementptr inbounds nuw i8, ptr %6, i64 56
  %8 = call { ptr, i8 } @_ZNSt10_HashtableIlSt4pairIKlSt10shared_ptrIN5arrow8DataTypeEEESaIS6_ENSt8__detail10_Select1stESt8equal_toIlESt4hashIlENS8_18_Mod_range_hashingENS8_20_Default_ranged_hashENS8_20_Prime_rehash_policyENS8_17_Hashtable_traitsILb0ELb0ELb1EEEE10_M_emplaceIJRlRKS5_EEES0_INS8_14_Node_iteratorIS6_Lb0ELb0EEEbESt17integral_constantIbLb1EEDpOT_(ptr noundef nonnull align 8 dereferenceable(56) %7, ptr noundef nonnull align 8 dereferenceable(8) %5, ptr noundef nonnull align 8 dereferenceable(16) %3)
  %.fca.1.extract = extractvalue { ptr, i8 } %8, 1
  %9 = trunc i8 %.fca.1.extract to i1
  br i1 %9, label %16, label %10

10:                                               ; preds = %4
  %.fca.0.extract = extractvalue { ptr, i8 } %8, 0
  %11 = getelementptr inbounds nuw i8, ptr %.fca.0.extract, i64 16
  %12 = load ptr, ptr %11, align 8, !tbaa !123
  %13 = load ptr, ptr %3, align 8, !tbaa !123
  %14 = call noundef zeroext i1 @_ZNK5arrow8DataType6EqualsERKS0_b(ptr noundef nonnull align 8 dereferenceable(72) %12, ptr noundef nonnull align 8 dereferenceable(72) %13, i1 noundef zeroext false)
  br i1 %14, label %16, label %15

15:                                               ; preds = %10
  call void @_ZN5arrow6Status8FromArgsIJRA37_KcRlEEES0_NS_10StatusCodeEDpOT_(ptr dead_on_unwind writable sret(%"class.arrow::Status") align 8 %0, i8 noundef signext 2, ptr noundef nonnull align 1 dereferenceable(37) @.str.1, ptr noundef nonnull align 8 dereferenceable(8) %5)
  br label %17

16:                                               ; preds = %10, %4
  store ptr null, ptr %0, align 8, !tbaa !71, !alias.scope !165
  br label %17

17:                                               ; preds = %16, %15
  ret void
}